target datalayout = "e-m:e-p270:32:32-p271:32:32-p272:64:64-i64:64-i128:128-f80:128-n8:16:32:64-S128"
target triple = "x86_64-unknown-linux-gnu"

; Function Attrs: mustprogress nounwind uwtable
define hidden noundef i32 @_Z18bcdec__interpolateiiPii(i32 noundef %a, i32 noundef %b, ptr noundef %weights, i32 noundef %index) #4 {
entry:
  %a.addr = alloca i32, align 4
  %b.addr = alloca i32, align 4
  %weights.addr = alloca ptr, align 8
  %index.addr = alloca i32, align 4
  store i32 %a, ptr %a.addr, align 4
  store i32 %b, ptr %b.addr, align 4
  store ptr %weights, ptr %weights.addr, align 8
  store i32 %index, ptr %index.addr, align 4
  %0 = load i32, ptr %a.addr, align 4
  %1 = load ptr, ptr %weights.addr, align 8
  %2 = load i32, ptr %index.addr, align 4
  %idxprom = sext i32 %2 to i64
  %arrayidx = getelementptr inbounds i32, ptr %1, i64 %idxprom
  %3 = load i32, ptr %arrayidx, align 4
  %sub = sub nsw i32 64, %3
  %mul = mul nsw i32 %0, %sub
  %4 = load i32, ptr %b.addr, align 4
  %5 = load ptr, ptr %weights.addr, align 8
  %6 = load i32, ptr %index.addr, align 4
  %idxprom1 = sext i32 %6 to i64
  %arrayidx2 = getelementptr inbounds i32, ptr %5, i64 %idxprom1
  %7 = load i32, ptr %arrayidx2, align 4
  %mul3 = mul nsw i32 %4, %7
  %add = add nsw i32 %mul, %mul3
  %add4 = add nsw i32 %add, 32
  %shr = ashr i32 %add4, 6
  ret i32 %shr
}