; Function Attrs: mustprogress nofree norecurse nosync nounwind willreturn memory(argmem: read) uwtable
define hidden noundef i32 @_Z18bcdec__interpolateiiPii(i32 noundef %a, i32 noundef %b, ptr nocapture noundef readonly %weights, i32 noundef %index) local_unnamed_addr #9 {
entry:
  %idxprom = sext i32 %index to i64
  %arrayidx = getelementptr inbounds i32, ptr %weights, i64 %idxprom
  %0 = load i32, ptr %arrayidx, align 4
  %sub = sub nsw i32 64, %0
  %mul = mul nsw i32 %sub, %a
  %mul3 = mul nsw i32 %0, %b
  %add = add i32 %mul3, 32
  %add4 = add i32 %add, %mul
  %shr = ashr i32 %add4, 6
  ret i32 %shr
}